target datalayout = "e-m:e-p270:32:32-p271:32:32-p272:64:64-i64:64-i128:128-f80:128-n8:16:32:64-S128"
target triple = "x86_64-pc-linux-gnu"

%struct._lv_obj_t = type { ptr, ptr, ptr, ptr, ptr, %struct.lv_area_t, i32, i16, i16 }
%struct.lv_area_t = type { i32, i32, i32, i32 }
%struct.lv_point_t = type { i32, i32 }

; Function Attrs: nounwind uwtable
define void @lv_obj_scroll_to_view_recursive(ptr noundef %0, i32 noundef %1) #0 {
  %3 = alloca ptr, align 8
  %4 = alloca i32, align 4
  %5 = alloca %struct.lv_point_t, align 4
  %6 = alloca ptr, align 8
  %7 = alloca ptr, align 8
  store ptr %0, ptr %3, align 8, !tbaa !3
  store i32 %1, ptr %4, align 4, !tbaa !7
  %8 = load ptr, ptr %3, align 8, !tbaa !3
  call void @lv_obj_update_layout(ptr noundef %8)
  call void @llvm.lifetime.start.p0(i64 8, ptr %5) #5
  call void @llvm.memset.p0.i64(ptr align 4 %5, i8 0, i64 8, i1 false)
  call void @llvm.lifetime.start.p0(i64 8, ptr %6) #5
  %9 = load ptr, ptr %3, align 8, !tbaa !3
  store ptr %9, ptr %6, align 8, !tbaa !3
  call void @llvm.lifetime.start.p0(i64 8, ptr %7) #5
  %10 = load ptr, ptr %6, align 8, !tbaa !3
  %11 = call ptr @lv_obj_get_parent(ptr noundef %10)
  store ptr %11, ptr %7, align 8, !tbaa !3
  br label %12

12:                                               ; preds = %15, %2
  %13 = load ptr, ptr %7, align 8, !tbaa !3
  %14 = icmp ne ptr %13, null
  br i1 %14, label %15, label %23

15:                                               ; preds = %12
  %16 = load ptr, ptr %3, align 8, !tbaa !3
  %17 = getelementptr inbounds nuw %struct._lv_obj_t, ptr %16, i32 0, i32 5
  %18 = load ptr, ptr %6, align 8, !tbaa !3
  %19 = load i32, ptr %4, align 4, !tbaa !7
  call void @scroll_area_into_view(ptr noundef %17, ptr noundef %18, ptr noundef %5, i32 noundef %19)
  %20 = load ptr, ptr %7, align 8, !tbaa !3
  store ptr %20, ptr %6, align 8, !tbaa !3
  %21 = load ptr, ptr %7, align 8, !tbaa !3
  %22 = call ptr @lv_obj_get_parent(ptr noundef %21)
  store ptr %22, ptr %7, align 8, !tbaa !3
  br label %12, !llvm.loop !39

23:                                               ; preds = %12
  call void @llvm.lifetime.end.p0(i64 8, ptr %7) #5
  call void @llvm.lifetime.end.p0(i64 8, ptr %6) #5
  call void @llvm.lifetime.end.p0(i64 8, ptr %5) #5
  ret void
}