; Function Attrs: nounwind uwtable
define void @lv_obj_scroll_to_view_recursive(ptr noundef %0, i32 noundef %1) local_unnamed_addr #0 {
  %3 = alloca %struct.lv_point_t, align 8
  tail call void @lv_obj_update_layout(ptr noundef %0) #5
  call void @llvm.lifetime.start.p0(i64 8, ptr nonnull %3) #5
  store i64 0, ptr %3, align 8
  %4 = tail call ptr @lv_obj_get_parent(ptr noundef %0) #5
  %.not9 = icmp eq ptr %4, null
  br i1 %.not9, label %._crit_edge, label %.lr.ph

.lr.ph:                                           ; preds = %2
  %5 = getelementptr inbounds nuw i8, ptr %0, i64 40
  br label %6

6:                                                ; preds = %.lr.ph, %6
  %.011 = phi ptr [ %4, %.lr.ph ], [ %7, %6 ]
  %.0810 = phi ptr [ %0, %.lr.ph ], [ %.011, %6 ]
  call fastcc void @scroll_area_into_view(ptr noundef nonnull %5, ptr noundef %.0810, ptr noundef %3, i32 noundef %1)
  %7 = tail call ptr @lv_obj_get_parent(ptr noundef nonnull %.011) #5
  %.not = icmp eq ptr %7, null
  br i1 %.not, label %._crit_edge, label %6, !llvm.loop !37

._crit_edge:                                      ; preds = %6, %2
  call void @llvm.lifetime.end.p0(i64 8, ptr nonnull %3) #5
  ret void
}